ccopy_reg
_reconstructor
p0
(c__main__
MyClass
p1
c__builtin__
object
p2
Ntp3
Rp4
(dp5
S'width'
p6
I50
sS'length'
p7
I100
sS'name'
p8
S'football'
p9
sb.ccopy_reg
_reconstructor
p0
(c__main__
MyClass
p1
c__builtin__
object
p2
Ntp3
Rp4
(dp5
S'width'
p6
I10
sS'length'
p7
I20
sS'name'
p8
S'tennis'
p9
sb.